Certificate:
    Data:
        Version: 3 (0x2)
        Serial Number: 4096 (0x1000)
    Signature Algorithm: sha1WithRSAEncryption
        Issuer: C=AU, ST=IN, L=West Lafayette, O=PU, OU=PU, CN=Zilin/emailAddress=shen624@purdue.edu
        Validity
            Not Before: Mar 22 00:59:20 2023 GMT
            Not After : Mar 21 00:59:20 2024 GMT
        Subject: C=AU, ST=IN, L=WL, O=PU, OU=PU, CN=ZILIN/emailAddress=shen624@purdue.edu
        Subject Public Key Info:
            Public Key Algorithm: rsaEncryption
                Public-Key: (1024 bit)
                Modulus:
                    00:bf:b0:cf:67:28:ed:1d:3f:2a:b5:75:b9:da:8f:
                    98:94:c8:8b:41:1d:bd:1e:69:06:e4:94:f1:85:48:
                    ce:a3:2e:a7:b1:8e:d2:c2:0d:88:7a:ca:d8:c4:63:
                    f1:3a:69:90:14:e9:12:23:65:63:b4:dd:77:de:35:
                    ce:2b:2b:ba:25:a3:34:31:b1:f2:66:26:a4:2b:31:
                    2e:90:9c:65:da:29:65:e0:76:f9:13:66:00:a5:6a:
                    c3:24:f1:2f:3b:1f:9c:68:cb:b5:02:3d:98:c1:6e:
                    ba:74:93:19:e9:e1:70:0d:1c:e2:e3:db:50:14:1d:
                    04:43:ec:83:43:4a:11:a5:f7
                Exponent: 65537 (0x10001)
        X509v3 extensions:
            X509v3 Basic Constraints: 
                CA:FALSE
            Netscape Comment: 
                OpenSSL Generated Certificate
            X509v3 Subject Key Identifier: 
                AE:1B:B4:38:9E:AF:39:8D:A5:91:7D:3C:50:12:02:26:4A:06:D3:13
            X509v3 Authority Key Identifier: 
                keyid:02:A4:AD:75:BA:21:6E:19:94:D6:FE:67:F0:EF:99:59:44:6F:F1:DB

    Signature Algorithm: sha1WithRSAEncryption
         81:c8:de:ab:c5:38:da:fe:c9:c6:11:5b:4e:c3:39:8c:a6:94:
         50:41:45:36:5e:8b:43:48:a7:8e:e6:ef:76:50:e2:31:01:82:
         22:97:cf:4f:7b:96:a7:f9:df:26:f9:6f:75:86:f9:cb:a1:b2:
         69:07:91:6d:69:0b:59:24:6c:94:77:72:2c:0a:c6:50:6f:89:
         9c:24:f4:19:9c:b8:46:d7:4f:02:5f:9b:0d:f8:c6:06:57:e8:
         8b:65:97:80:63:13:f8:ec:0d:a8:06:59:35:0f:97:5c:83:9f:
         4a:bf:6c:d4:ab:29:76:be:49:65:14:84:94:ba:3f:4c:2b:80:
         6d:78:4d:7a:db:11:b1:7f:e3:28:c6:f6:5b:02:18:82:04:91:
         9f:13:e4:8c:58:0e:4e:1d:75:26:15:38:f1:f4:2e:19:51:a9:
         7b:d5:eb:16:b0:d3:ae:79:a2:31:62:39:1e:ff:b2:aa:91:c6:
         6f:8c:12:e4:ee:40:fc:d3:c6:ea:8a:6f:5c:0a:bf:12:52:53:
         23:96:de:7c:38:2b:52:da:21:b3:c5:49:d9:ad:6f:7c:d0:06:
         aa:1a:f9:39:33:cf:a3:a7:3c:32:16:37:99:52:d3:6f:62:ac:
         aa:05:61:c3:d9:c1:77:80:64:67:93:6d:de:6b:6a:0e:84:12:
         27:4b:cc:77
-----BEGIN CERTIFICATE-----
MIIDaDCCAlCgAwIBAgICEAAwDQYJKoZIhvcNAQEFBQAwgYAxCzAJBgNVBAYTAkFV
MQswCQYDVQQIDAJJTjEXMBUGA1UEBwwOV2VzdCBMYWZheWV0dGUxCzAJBgNVBAoM
AlBVMQswCQYDVQQLDAJQVTEOMAwGA1UEAwwFWmlsaW4xITAfBgkqhkiG9w0BCQEW
EnNoZW42MjRAcHVyZHVlLmVkdTAeFw0yMzAzMjIwMDU5MjBaFw0yNDAzMjEwMDU5
MjBaMHQxCzAJBgNVBAYTAkFVMQswCQYDVQQIDAJJTjELMAkGA1UEBwwCV0wxCzAJ
BgNVBAoMAlBVMQswCQYDVQQLDAJQVTEOMAwGA1UEAwwFWklMSU4xITAfBgkqhkiG
9w0BCQEWEnNoZW42MjRAcHVyZHVlLmVkdTCBnzANBgkqhkiG9w0BAQEFAAOBjQAw
gYkCgYEAv7DPZyjtHT8qtXW52o+YlMiLQR29HmkG5JTxhUjOoy6nsY7Swg2IesrY
xGPxOmmQFOkSI2VjtN133jXOKyu6JaM0MbHyZiakKzEukJxl2ill4Hb5E2YApWrD
JPEvOx+caMu1Aj2YwW66dJMZ6eFwDRzi49tQFB0EQ+yDQ0oRpfcCAwEAAaN7MHkw
CQYDVR0TBAIwADAsBglghkgBhvhCAQ0EHxYdT3BlblNTTCBHZW5lcmF0ZWQgQ2Vy
dGlmaWNhdGUwHQYDVR0OBBYEFK4btDierzmNpZF9PFASAiZKBtMTMB8GA1UdIwQY
MBaAFAKkrXW6IW4ZlNb+Z/DvmVlEb/HbMA0GCSqGSIb3DQEBBQUAA4IBAQCByN6r
xTja/snGEVtOwzmMppRQQUU2XotDSKeO5u92UOIxAYIil89Pe5an+d8m+W91hvnL
obJpB5FtaQtZJGyUd3IsCsZQb4mcJPQZnLhG108CX5sN+MYGV+iLZZeAYxP47A2o
Blk1D5dcg59Kv2zUqyl2vkllFISUuj9MK4BteE162xGxf+MoxvZbAhiCBJGfE+SM
WA5OHXUmFTjx9C4ZUal71esWsNOueaIxYjke/7KqkcZvjBLk7kD808bqim9cCr8S
UlMjlt58OCtS2iGzxUnZrW980AaqGvk5M8+jpzwyFjeZUtNvYqyqBWHD2cF3gGRn
k23ea2oOhBInS8x3
-----END CERTIFICATE-----
