Certificate:
    Data:
        Version: 3 (0x2)
        Serial Number: 4097 (0x1001)
    Signature Algorithm: sha1WithRSAEncryption
        Issuer: C=AU, ST=IN, L=West Lafayette, O=PU, OU=PU, CN=Zilin/emailAddress=shen624@purdue.edu
        Validity
            Not Before: Mar 22 01:04:27 2023 GMT
            Not After : Mar 21 01:04:27 2024 GMT
        Subject: C=AU, ST=IN, L=WL, O=PU, OU=PU, CN=ZILIN/emailAddress=shen624@purdue.edu
        Subject Public Key Info:
            Public Key Algorithm: rsaEncryption
                Public-Key: (1024 bit)
                Modulus:
                    00:d4:28:ce:7d:b9:dc:8c:d6:4f:45:03:16:4d:d3:
                    81:02:4e:d6:82:33:61:c1:59:6a:40:79:5c:33:b4:
                    0b:e2:e0:03:45:88:6d:50:d0:fd:e0:06:ee:74:6d:
                    b5:f0:b2:1f:31:f0:59:df:e4:7e:74:90:6c:ab:6d:
                    17:62:a4:e5:17:c3:fa:6f:41:2e:61:7e:9f:f2:39:
                    7d:19:f2:f3:7b:4e:fd:22:2b:04:e5:f8:07:5a:65:
                    13:33:34:00:9e:9c:9a:cd:ad:40:39:a4:5a:18:d0:
                    b1:a3:68:b5:62:81:29:4a:f9:f0:97:1d:b0:30:68:
                    b2:78:f8:e9:ae:71:c4:1c:49
                Exponent: 65537 (0x10001)
        X509v3 extensions:
            X509v3 Basic Constraints: 
                CA:FALSE
            Netscape Comment: 
                OpenSSL Generated Certificate
            X509v3 Subject Key Identifier: 
                B1:3F:E9:D7:B5:4D:DF:63:55:20:FD:AA:A6:07:D6:FE:66:F4:C9:7C
            X509v3 Authority Key Identifier: 
                keyid:02:A4:AD:75:BA:21:6E:19:94:D6:FE:67:F0:EF:99:59:44:6F:F1:DB

    Signature Algorithm: sha1WithRSAEncryption
         25:e4:9c:ef:9c:4e:8c:21:55:7f:59:51:b2:0b:04:f7:32:0e:
         94:57:86:ca:2f:f8:ca:fd:17:cd:7e:8e:b9:72:ae:40:1f:3f:
         65:43:0f:48:6c:44:94:74:49:a5:8a:53:55:00:ce:8b:c1:ca:
         33:58:83:d1:bd:7a:75:99:0c:ad:e4:4c:ee:d9:c4:85:1d:ea:
         9e:e5:5d:fb:78:73:65:08:49:4f:af:6b:64:61:bf:c0:be:17:
         c0:e6:dd:f3:b7:8e:7b:6c:e0:f4:8b:97:94:16:96:dc:33:a3:
         43:2f:17:d3:71:21:14:11:38:a3:bf:8c:74:bc:f4:59:cb:7b:
         2d:13:f6:6b:f9:d2:49:c6:89:d5:af:0c:21:f3:25:1d:1e:0f:
         f4:db:49:b1:f5:ad:58:58:b9:65:5f:f4:cf:ce:79:b5:1b:30:
         e2:86:f7:a1:fb:d0:7c:25:25:d5:f9:dc:b2:50:49:64:67:32:
         81:83:6e:cf:d9:04:02:ff:f3:73:89:5f:55:bb:f4:5c:76:74:
         f6:77:5e:cc:1d:8d:28:0c:32:60:57:f2:ee:53:41:c2:0e:31:
         2d:c0:0f:e0:12:e8:8d:07:32:fa:c1:6c:c7:e8:bb:27:d3:e9:
         fc:5b:07:6c:28:31:e9:47:c1:76:00:9a:c3:e3:b6:fb:da:3e:
         dc:f4:4f:8b
-----BEGIN CERTIFICATE-----
MIIDaDCCAlCgAwIBAgICEAEwDQYJKoZIhvcNAQEFBQAwgYAxCzAJBgNVBAYTAkFV
MQswCQYDVQQIDAJJTjEXMBUGA1UEBwwOV2VzdCBMYWZheWV0dGUxCzAJBgNVBAoM
AlBVMQswCQYDVQQLDAJQVTEOMAwGA1UEAwwFWmlsaW4xITAfBgkqhkiG9w0BCQEW
EnNoZW42MjRAcHVyZHVlLmVkdTAeFw0yMzAzMjIwMTA0MjdaFw0yNDAzMjEwMTA0
MjdaMHQxCzAJBgNVBAYTAkFVMQswCQYDVQQIDAJJTjELMAkGA1UEBwwCV0wxCzAJ
BgNVBAoMAlBVMQswCQYDVQQLDAJQVTEOMAwGA1UEAwwFWklMSU4xITAfBgkqhkiG
9w0BCQEWEnNoZW42MjRAcHVyZHVlLmVkdTCBnzANBgkqhkiG9w0BAQEFAAOBjQAw
gYkCgYEA1CjOfbncjNZPRQMWTdOBAk7WgjNhwVlqQHlcM7QL4uADRYhtUND94Abu
dG218LIfMfBZ3+R+dJBsq20XYqTlF8P6b0EuYX6f8jl9GfLze079IisE5fgHWmUT
MzQAnpyaza1AOaRaGNCxo2i1YoEpSvnwlx2wMGiyePjprnHEHEkCAwEAAaN7MHkw
CQYDVR0TBAIwADAsBglghkgBhvhCAQ0EHxYdT3BlblNTTCBHZW5lcmF0ZWQgQ2Vy
dGlmaWNhdGUwHQYDVR0OBBYEFLE/6de1Td9jVSD9qqYH1v5m9Ml8MB8GA1UdIwQY
MBaAFAKkrXW6IW4ZlNb+Z/DvmVlEb/HbMA0GCSqGSIb3DQEBBQUAA4IBAQAl5Jzv
nE6MIVV/WVGyCwT3Mg6UV4bKL/jK/RfNfo65cq5AHz9lQw9IbESUdEmlilNVAM6L
wcozWIPRvXp1mQyt5Ezu2cSFHeqe5V37eHNlCElPr2tkYb/AvhfA5t3zt457bOD0
i5eUFpbcM6NDLxfTcSEUETijv4x0vPRZy3stE/Zr+dJJxonVrwwh8yUdHg/020mx
9a1YWLllX/TPznm1GzDihveh+9B8JSXV+dyyUElkZzKBg27P2QQC//NziV9Vu/Rc
dnT2d17MHY0oDDJgV/LuU0HCDjEtwA/gEuiNBzL6wWzH6Lsn0+n8WwdsKDHpR8F2
AJrD47b72j7c9E+L
-----END CERTIFICATE-----
