Certificate:
    Data:
        Version: 3 (0x2)
        Serial Number: 4098 (0x1002)
    Signature Algorithm: sha1WithRSAEncryption
        Issuer: C=AU, ST=IN, L=West Lafayette, O=PU, OU=PU, CN=Zilin/emailAddress=shen624@purdue.edu
        Validity
            Not Before: Mar 22 01:15:12 2023 GMT
            Not After : Mar 21 01:15:12 2024 GMT
        Subject: C=AU, ST=IN, L=WL, O=PU, OU=PU, CN=ZILIN/emailAddress=shen624@purdue.edu
        Subject Public Key Info:
            Public Key Algorithm: rsaEncryption
                Public-Key: (1024 bit)
                Modulus:
                    00:bf:b0:cf:67:28:ed:1d:3f:2a:b5:75:b9:da:8f:
                    98:94:c8:8b:41:1d:bd:1e:69:06:e4:94:f1:85:48:
                    ce:a3:2e:a7:b1:8e:d2:c2:0d:88:7a:ca:d8:c4:63:
                    f1:3a:69:90:14:e9:12:23:65:63:b4:dd:77:de:35:
                    ce:2b:2b:ba:25:a3:34:31:b1:f2:66:26:a4:2b:31:
                    2e:90:9c:65:da:29:65:e0:76:f9:13:66:00:a5:6a:
                    c3:24:f1:2f:3b:1f:9c:68:cb:b5:02:3d:98:c1:6e:
                    ba:74:93:19:e9:e1:70:0d:1c:e2:e3:db:50:14:1d:
                    04:43:ec:83:43:4a:11:a5:f7
                Exponent: 65537 (0x10001)
        X509v3 extensions:
            X509v3 Basic Constraints: 
                CA:FALSE
            Netscape Comment: 
                OpenSSL Generated Certificate
            X509v3 Subject Key Identifier: 
                AE:1B:B4:38:9E:AF:39:8D:A5:91:7D:3C:50:12:02:26:4A:06:D3:13
            X509v3 Authority Key Identifier: 
                keyid:02:A4:AD:75:BA:21:6E:19:94:D6:FE:67:F0:EF:99:59:44:6F:F1:DB

    Signature Algorithm: sha1WithRSAEncryption
         a8:ab:68:29:b2:d4:f9:00:e1:74:d7:8d:4b:04:f8:9c:78:e1:
         af:9f:2a:53:e3:93:2d:ed:7d:39:34:ab:10:38:41:f6:36:fd:
         fa:a7:ef:eb:a9:8f:1c:af:8e:5d:0e:79:1a:e3:06:74:f1:90:
         b5:66:4a:96:de:56:0b:0c:31:5b:b0:73:bf:a8:7e:1d:0a:71:
         70:63:f2:3b:9c:80:1d:e5:9a:ca:ee:ce:f2:a0:30:00:0f:92:
         38:6c:13:98:41:ee:78:3e:3f:e4:14:91:0b:ff:6b:a6:04:66:
         a0:13:3b:74:48:ee:99:80:2a:b7:cb:70:70:f6:15:94:1d:d0:
         c1:9d:74:78:d8:3f:3d:88:0a:9c:fd:50:c5:c2:2f:48:13:39:
         38:fc:a8:19:95:ee:d6:31:90:3d:6d:72:25:75:e9:eb:b1:ff:
         f3:9f:0b:96:64:7e:77:5f:a3:e5:9a:65:5b:71:eb:fc:ec:84:
         f5:7f:16:24:f0:a1:d9:98:8a:af:96:54:20:61:42:d5:0a:5a:
         d5:67:40:50:6b:ea:d7:ef:26:ae:78:2e:a3:78:0c:1b:69:61:
         40:4b:b4:67:bb:14:71:04:ac:bd:6a:b4:e3:9a:3e:3c:c3:36:
         0c:98:bf:1f:09:da:f8:04:68:50:17:26:f8:db:e3:58:8c:88:
         9d:97:27:8f
-----BEGIN CERTIFICATE-----
MIIDaDCCAlCgAwIBAgICEAIwDQYJKoZIhvcNAQEFBQAwgYAxCzAJBgNVBAYTAkFV
MQswCQYDVQQIDAJJTjEXMBUGA1UEBwwOV2VzdCBMYWZheWV0dGUxCzAJBgNVBAoM
AlBVMQswCQYDVQQLDAJQVTEOMAwGA1UEAwwFWmlsaW4xITAfBgkqhkiG9w0BCQEW
EnNoZW42MjRAcHVyZHVlLmVkdTAeFw0yMzAzMjIwMTE1MTJaFw0yNDAzMjEwMTE1
MTJaMHQxCzAJBgNVBAYTAkFVMQswCQYDVQQIDAJJTjELMAkGA1UEBwwCV0wxCzAJ
BgNVBAoMAlBVMQswCQYDVQQLDAJQVTEOMAwGA1UEAwwFWklMSU4xITAfBgkqhkiG
9w0BCQEWEnNoZW42MjRAcHVyZHVlLmVkdTCBnzANBgkqhkiG9w0BAQEFAAOBjQAw
gYkCgYEAv7DPZyjtHT8qtXW52o+YlMiLQR29HmkG5JTxhUjOoy6nsY7Swg2IesrY
xGPxOmmQFOkSI2VjtN133jXOKyu6JaM0MbHyZiakKzEukJxl2ill4Hb5E2YApWrD
JPEvOx+caMu1Aj2YwW66dJMZ6eFwDRzi49tQFB0EQ+yDQ0oRpfcCAwEAAaN7MHkw
CQYDVR0TBAIwADAsBglghkgBhvhCAQ0EHxYdT3BlblNTTCBHZW5lcmF0ZWQgQ2Vy
dGlmaWNhdGUwHQYDVR0OBBYEFK4btDierzmNpZF9PFASAiZKBtMTMB8GA1UdIwQY
MBaAFAKkrXW6IW4ZlNb+Z/DvmVlEb/HbMA0GCSqGSIb3DQEBBQUAA4IBAQCoq2gp
stT5AOF0141LBPiceOGvnypT45Mt7X05NKsQOEH2Nv36p+/rqY8cr45dDnka4wZ0
8ZC1ZkqW3lYLDDFbsHO/qH4dCnFwY/I7nIAd5ZrK7s7yoDAAD5I4bBOYQe54Pj/k
FJEL/2umBGagEzt0SO6ZgCq3y3Bw9hWUHdDBnXR42D89iAqc/VDFwi9IEzk4/KgZ
le7WMZA9bXIldenrsf/znwuWZH53X6PlmmVbcev87IT1fxYk8KHZmIqvllQgYULV
ClrVZ0BQa+rX7yaueC6jeAwbaWFAS7RnuxRxBKy9arTjmj48wzYMmL8fCdr4BGhQ
Fyb42+NYjIidlyeP
-----END CERTIFICATE-----
